; Function Attrs: nounwind uwtable
define void @evconnlistener_set_cb(ptr noundef initializes((32, 40)) %0, ptr noundef %1, ptr noundef %2) local_unnamed_addr #0 {
  %4 = getelementptr inbounds nuw i8, ptr %0, i64 8
  %5 = load ptr, ptr %4, align 8
  %.not = icmp eq ptr %5, null
  br i1 %.not, label %9, label %6

6:                                                ; preds = %3
  %7 = load ptr, ptr getelementptr inbounds nuw (i8, ptr @evthread_lock_fns_, i64 24), align 8
  %8 = tail call i32 %7(i32 noundef 0, ptr noundef nonnull %5) #6
  br label %9

9:                                                ; preds = %6, %3
  %10 = getelementptr inbounds nuw i8, ptr %0, i64 52
  %11 = load i8, ptr %10, align 4
  %12 = and i8 %11, 1
  %.not13 = icmp eq i8 %12, 0
  %13 = getelementptr inbounds nuw i8, ptr %0, i64 16
  br i1 %.not13, label %.critedge, label %14

14:                                               ; preds = %9
  %15 = load ptr, ptr %13, align 8
  %.not14.not = icmp eq ptr %15, null
  store ptr %1, ptr %13, align 8
  %16 = getelementptr inbounds nuw i8, ptr %0, i64 32
  store ptr %2, ptr %16, align 8
  br i1 %.not14.not, label %17, label %evconnlistener_enable.exit

17:                                               ; preds = %14
  %18 = load ptr, ptr %4, align 8
  %.not.i = icmp eq ptr %18, null
  br i1 %.not.i, label %22, label %19

19:                                               ; preds = %17
  %20 = load ptr, ptr getelementptr inbounds nuw (i8, ptr @evthread_lock_fns_, i64 24), align 8
  %21 = tail call i32 %20(i32 noundef 0, ptr noundef nonnull %18) #6
  %.pre = load i8, ptr %10, align 4
  %.pre18 = load ptr, ptr %13, align 8
  br label %22

22:                                               ; preds = %19, %17
  %23 = phi ptr [ %.pre18, %19 ], [ %1, %17 ]
  %24 = phi i8 [ %.pre, %19 ], [ %11, %17 ]
  %25 = or i8 %24, 1
  store i8 %25, ptr %10, align 4
  %.not10.i = icmp eq ptr %23, null
  br i1 %.not10.i, label %30, label %26

26:                                               ; preds = %22
  %27 = load ptr, ptr %0, align 8
  %28 = load ptr, ptr %27, align 8
  %29 = tail call i32 %28(ptr noundef nonnull %0) #6
  br label %30

30:                                               ; preds = %26, %22
  %31 = load ptr, ptr %4, align 8
  %.not11.i = icmp eq ptr %31, null
  br i1 %.not11.i, label %evconnlistener_enable.exit.thread, label %32

32:                                               ; preds = %30
  %33 = load ptr, ptr getelementptr inbounds nuw (i8, ptr @evthread_lock_fns_, i64 32), align 8
  %34 = tail call i32 %33(i32 noundef 0, ptr noundef nonnull %31) #6
  br label %evconnlistener_enable.exit

.critedge:                                        ; preds = %9
  store ptr %1, ptr %13, align 8
  %35 = getelementptr inbounds nuw i8, ptr %0, i64 32
  store ptr %2, ptr %35, align 8
  br label %evconnlistener_enable.exit

evconnlistener_enable.exit:                       ; preds = %32, %.critedge, %14
  %.pr = load ptr, ptr %4, align 8
  %.not16 = icmp eq ptr %.pr, null
  br i1 %.not16, label %evconnlistener_enable.exit.thread, label %36

36:                                               ; preds = %evconnlistener_enable.exit
  %37 = load ptr, ptr getelementptr inbounds nuw (i8, ptr @evthread_lock_fns_, i64 32), align 8
  %38 = tail call i32 %37(i32 noundef 0, ptr noundef nonnull %.pr) #6
  br label %evconnlistener_enable.exit.thread

evconnlistener_enable.exit.thread:                ; preds = %30, %36, %evconnlistener_enable.exit
  ret void
}